target datalayout = "e-m:e-p270:32:32-p271:32:32-p272:64:64-i64:64-i128:128-f80:128-n8:16:32:64-S128"
target triple = "x86_64-pc-linux-gnu"

%class.Archive = type <{ %class.File, %class.CryptData, %class.ComprDataIO, i8, [7 x i8], ptr, %class.RarTime, i32, i32, i8, [7 x i8], %class.QuickOpen, i8, [3 x i8], %struct.BaseBlock, %struct.MarkHeader, [4 x i8], %struct.MainHeader, %struct.CryptHeader, [4 x i8], %struct.FileHeader, %struct.EndArcHeader, %struct.SubBlockHeader, [4 x i8], %struct.FileHeader, %struct.CommentHeader, %struct.ProtectHeader, %struct.EAHeader, %struct.StreamHeader, [4 x i8], i64, i64, i32, i8, i8, i8, i8, i8, i8, i8, i8, i8, [3 x i8], i64, i8, i8, [16 x i8], i8, i8, i32, i64, i64, i64, i8, [3 x i8], [2048 x i32], [4 x i8] }>
%class.File = type { ptr, i64, i8, i32, i8, i8, i32, i8, i8, i8, i8, i8, i64, i8, [2048 x i32], i32, ptr }
%class.CryptData = type { [4 x %"struct.CryptData::KDF3CacheItem"], i32, [4 x i8], [4 x %"struct.CryptData::KDF5CacheItem"], i32, i32, %class.Rijndael, [256 x i32], [256 x i8], [4 x i32], [3 x i8], [4 x i16], [4 x i8] }
%"struct.CryptData::KDF3CacheItem" = type { %class.SecPassword, [8 x i8], [16 x i8], [16 x i8], i8, [7 x i8] }
%class.SecPassword = type <{ %"class.std::vector", i8, [7 x i8] }>
%"class.std::vector" = type { %"struct.std::_Vector_base" }
%"struct.std::_Vector_base" = type { %"struct.std::_Vector_base<wchar_t, std::allocator<wchar_t>>::_Vector_impl" }
%"struct.std::_Vector_base<wchar_t, std::allocator<wchar_t>>::_Vector_impl" = type { %"struct.std::_Vector_base<wchar_t, std::allocator<wchar_t>>::_Vector_impl_data" }
%"struct.std::_Vector_base<wchar_t, std::allocator<wchar_t>>::_Vector_impl_data" = type { ptr, ptr, ptr }
%"struct.CryptData::KDF5CacheItem" = type { %class.SecPassword, [16 x i8], [32 x i8], i32, [32 x i8], [32 x i8], [4 x i8] }
%class.Rijndael = type { i8, i32, [16 x i8], [15 x [4 x [4 x i8]]] }
%class.ComprDataIO = type <{ i8, [7 x i8], i64, ptr, i8, [7 x i8], i64, ptr, i64, ptr, i64, i64, i8, i8, i8, i8, [4 x i8], ptr, ptr, ptr, ptr, ptr, ptr, ptr, i32, i32, i8, i8, i8, [5 x i8], i64, i64, i64, i64, i64, i64, i64, %class.DataHash, %class.DataHash, %class.DataHash, i8, i8, [6 x i8] }>
%class.DataHash = type { i32, i32, ptr }
%class.RarTime = type { i64 }
%class.QuickOpen = type <{ ptr, i8, [7 x i8], ptr, ptr, ptr, i64, %class.CryptData, i8, [7 x i8], i64, i64, i64, i64, i64, i64, %class.Array, i64, i64, i8, [7 x i8] }>
%class.Array = type { ptr, i64, i64, i64 }
%struct.BaseBlock = type { i32, i32, i32, i32, i8 }
%struct.MarkHeader = type { [8 x i8], i32 }
%struct.MainHeader = type { %struct.BaseBlock, i16, i32, i8, i8, i8, i64, i64, i64, i64, i64, %"class.std::__cxx11::basic_string", %class.RarTime }
%"class.std::__cxx11::basic_string" = type { %"struct.std::__cxx11::basic_string<wchar_t>::_Alloc_hider", i64, %union.anon }
%"struct.std::__cxx11::basic_string<wchar_t>::_Alloc_hider" = type { ptr }
%union.anon = type { i64, [8 x i8] }
%struct.CryptHeader = type { %struct.BaseBlock, i8, i32, [16 x i8], [8 x i8] }
%struct.EndArcHeader = type { %struct.BaseBlock, i32, i32, i8, i8, i8, i8 }
%struct.SubBlockHeader = type <{ %struct.BlockHeader, i16, i8, i8 }>
%struct.BlockHeader = type { %struct.BaseBlock, i32 }
%struct.FileHeader = type { %struct.BlockHeader, i8, i32, i8, %union.anon.0, [2048 x i32], %class.Array, %class.RarTime, %class.RarTime, %class.RarTime, i64, i64, i64, %struct.HashValue, i32, i8, i8, i8, i8, i32, i8, [16 x i8], [16 x i8], i8, [8 x i8], i8, [32 x i8], i32, i8, i8, i8, i8, i64, i8, i8, i8, i32, i32, [2048 x i32], i8, i8, i8, i8, [256 x i8], [256 x i8], i32, i32 }
%union.anon.0 = type { i32 }
%struct.HashValue = type { i32, %union.anon.1 }
%union.anon.1 = type { i32, [28 x i8] }
%struct.CommentHeader = type <{ %struct.BaseBlock, i16, i8, i8, i16, [2 x i8] }>
%struct.ProtectHeader = type { %struct.BlockHeader, i8, i16, i32, [8 x i8] }
%struct.EAHeader = type { %struct.SubBlockHeader.base, i32, i8, i8, i32 }
%struct.SubBlockHeader.base = type <{ %struct.BlockHeader, i16, i8 }>
%struct.StreamHeader = type <{ %struct.SubBlockHeader.base, i8, i32, i8, i8, [2 x i8], i32, i16, [260 x i8], [2 x i8] }>

@.str = private unnamed_addr constant [3 x i32] [i32 82, i32 82, i32 0], align 4

; Function Attrs: mustprogress uwtable
define noundef i64 @_ZN7Archive14SearchSubBlockEPKw(ptr noundef nonnull align 8 dereferenceable(57108) %0, ptr noundef %1) #0 align 2 {
  %3 = alloca i64, align 8
  %4 = alloca ptr, align 8
  %5 = alloca ptr, align 8
  %6 = alloca i64, align 8
  %7 = alloca i64, align 8
  store ptr %0, ptr %4, align 8
  store ptr %1, ptr %5, align 8
  %8 = load ptr, ptr %4, align 8
  store i64 0, ptr %7, align 8
  br label %9

9:                                                ; preds = %32, %2
  %10 = call noundef i64 @_ZN7Archive10ReadHeaderEv(ptr noundef nonnull align 8 dereferenceable(57108) %8)
  store i64 %10, ptr %6, align 8
  %11 = icmp ne i64 %10, 0
  br i1 %11, label %12, label %15

12:                                               ; preds = %9
  %13 = call noundef i32 @_ZN7Archive13GetHeaderTypeEv(ptr noundef nonnull align 8 dereferenceable(57108) %8)
  %14 = icmp ne i32 %13, 5
  br label %15

15:                                               ; preds = %12, %9
  %16 = phi i1 [ false, %9 ], [ %14, %12 ]
  br i1 %16, label %17, label %33

17:                                               ; preds = %15
  %18 = load i64, ptr %7, align 8
  %19 = add i64 %18, 1
  store i64 %19, ptr %7, align 8
  %20 = and i64 %19, 127
  %21 = icmp eq i64 %20, 0
  br i1 %21, label %22, label %23

22:                                               ; preds = %17
  call void @_Z4Waitv()
  br label %23

23:                                               ; preds = %22, %17
  %24 = call noundef i32 @_ZN7Archive13GetHeaderTypeEv(ptr noundef nonnull align 8 dereferenceable(57108) %8)
  %25 = icmp eq i32 %24, 3
  br i1 %25, label %26, label %32

26:                                               ; preds = %23
  %27 = getelementptr inbounds %class.Archive, ptr %8, i32 0, i32 24
  %28 = load ptr, ptr %5, align 8
  %29 = call noundef zeroext i1 @_ZN10FileHeader7CmpNameEPKw(ptr noundef nonnull align 8 dereferenceable(17184) %27, ptr noundef %28)
  br i1 %29, label %30, label %32

30:                                               ; preds = %26
  %31 = load i64, ptr %6, align 8
  store i64 %31, ptr %3, align 8
  br label %34

32:                                               ; preds = %26, %23
  call void @_ZN7Archive10SeekToNextEv(ptr noundef nonnull align 8 dereferenceable(57108) %8)
  br label %9, !llvm.loop !9

33:                                               ; preds = %15
  store i64 0, ptr %3, align 8
  br label %34

34:                                               ; preds = %33, %30
  %35 = load i64, ptr %3, align 8
  ret i64 %35
}

; Function Attrs: mustprogress nounwind uwtable
define linkonce_odr noundef zeroext i1 @_ZN10FileHeader7CmpNameEPKw(ptr noundef nonnull align 8 dereferenceable(17184) %0, ptr noundef %1) #1 comdat align 2 {
  %3 = alloca ptr, align 8
  %4 = alloca ptr, align 8
  store ptr %0, ptr %3, align 8
  store ptr %1, ptr %4, align 8
  %5 = load ptr, ptr %3, align 8
  %6 = getelementptr inbounds %struct.FileHeader, ptr %5, i32 0, i32 5
  %7 = getelementptr inbounds [2048 x i32], ptr %6, i64 0, i64 0
  %8 = load ptr, ptr %4, align 8
  %9 = call i32 @wcscmp(ptr noundef %7, ptr noundef %8) #13
  %10 = icmp eq i32 %9, 0
  ret i1 %10
}

; Function Attrs: mustprogress nounwind uwtable
define linkonce_odr noundef i32 @_ZN7Archive13GetHeaderTypeEv(ptr noundef nonnull align 8 dereferenceable(57108) %0) #1 comdat align 2 {
  %2 = alloca ptr, align 8
  store ptr %0, ptr %2, align 8
  %3 = load ptr, ptr %2, align 8
  %4 = getelementptr inbounds %class.Archive, ptr %3, i32 0, i32 8
  %5 = load i32, ptr %4, align 4
  ret i32 %5
}

; Function Attrs: mustprogress uwtable
define noundef i64 @_ZN7Archive8SearchRREv(ptr noundef nonnull align 8 dereferenceable(57108) %0) #0 align 2 {
  %2 = alloca i64, align 8
  %3 = alloca ptr, align 8
  %4 = alloca i64, align 8
  %5 = alloca i64, align 8
  store ptr %0, ptr %3, align 8
  %6 = load ptr, ptr %3, align 8
  %7 = getelementptr inbounds %class.Archive, ptr %6, i32 0, i32 17
  %8 = getelementptr inbounds %struct.MainHeader, ptr %7, i32 0, i32 5
  %9 = load i8, ptr %8, align 2
  %10 = trunc i8 %9 to i1
  br i1 %10, label %11, label %47

11:                                               ; preds = %1
  %12 = getelementptr inbounds %class.Archive, ptr %6, i32 0, i32 17
  %13 = getelementptr inbounds %struct.MainHeader, ptr %12, i32 0, i32 8
  %14 = load i64, ptr %13, align 8
  %15 = icmp ne i64 %14, 0
  br i1 %15, label %16, label %47

16:                                               ; preds = %11
  %17 = load ptr, ptr %6, align 8
  %18 = getelementptr inbounds ptr, ptr %17, i64 6
  %19 = load ptr, ptr %18, align 8
  %20 = call noundef i64 %19(ptr noundef nonnull align 8 dereferenceable(57108) %6)
  store i64 %20, ptr %4, align 8
  %21 = getelementptr inbounds %class.Archive, ptr %6, i32 0, i32 17
  %22 = getelementptr inbounds %struct.MainHeader, ptr %21, i32 0, i32 8
  %23 = load i64, ptr %22, align 8
  %24 = load ptr, ptr %6, align 8
  %25 = getelementptr inbounds ptr, ptr %24, i64 5
  %26 = load ptr, ptr %25, align 8
  call void %26(ptr noundef nonnull align 8 dereferenceable(57108) %6, i64 noundef %23, i32 noundef 0)
  %27 = call noundef i64 @_ZN7Archive10ReadHeaderEv(ptr noundef nonnull align 8 dereferenceable(57108) %6)
  store i64 %27, ptr %5, align 8
  %28 = load i64, ptr %5, align 8
  %29 = icmp ne i64 %28, 0
  br i1 %29, label %30, label %42

30:                                               ; preds = %16
  %31 = getelementptr inbounds %class.Archive, ptr %6, i32 0, i32 44
  %32 = load i8, ptr %31, align 8
  %33 = trunc i8 %32 to i1
  br i1 %33, label %42, label %34

34:                                               ; preds = %30
  %35 = call noundef i32 @_ZN7Archive13GetHeaderTypeEv(ptr noundef nonnull align 8 dereferenceable(57108) %6)
  %36 = icmp eq i32 %35, 3
  br i1 %36, label %37, label %42

37:                                               ; preds = %34
  %38 = getelementptr inbounds %class.Archive, ptr %6, i32 0, i32 24
  %39 = call noundef zeroext i1 @_ZN10FileHeader7CmpNameEPKw(ptr noundef nonnull align 8 dereferenceable(17184) %38, ptr noundef @.str)
  br i1 %39, label %40, label %42

40:                                               ; preds = %37
  %41 = load i64, ptr %5, align 8
  store i64 %41, ptr %2, align 8
  br label %49

42:                                               ; preds = %37, %34, %30, %16
  %43 = load i64, ptr %4, align 8
  %44 = load ptr, ptr %6, align 8
  %45 = getelementptr inbounds ptr, ptr %44, i64 5
  %46 = load ptr, ptr %45, align 8
  call void %46(ptr noundef nonnull align 8 dereferenceable(57108) %6, i64 noundef %43, i32 noundef 0)
  br label %47

47:                                               ; preds = %42, %11, %1
  %48 = call noundef i64 @_ZN7Archive14SearchSubBlockEPKw(ptr noundef nonnull align 8 dereferenceable(57108) %6, ptr noundef @.str)
  store i64 %48, ptr %2, align 8
  br label %49

49:                                               ; preds = %47, %40
  %50 = load i64, ptr %2, align 8
  ret i64 %50
}