; Function Attrs: mustprogress uwtable
define noundef i64 @_ZN7Archive8SearchRREv(ptr noundef nonnull align 8 dereferenceable(57108) %0) local_unnamed_addr #0 align 2 {
  %2 = getelementptr inbounds i8, ptr %0, i64 13838
  %3 = load i8, ptr %2, align 2
  %4 = trunc i8 %3 to i1
  br i1 %4, label %5, label %33

5:                                                ; preds = %1
  %6 = getelementptr inbounds i8, ptr %0, i64 13856
  %7 = load i64, ptr %6, align 8
  %.not = icmp eq i64 %7, 0
  br i1 %.not, label %33, label %8

8:                                                ; preds = %5
  %9 = load ptr, ptr %0, align 8
  %10 = getelementptr inbounds i8, ptr %9, i64 48
  %11 = load ptr, ptr %10, align 8
  %12 = tail call noundef i64 %11(ptr noundef nonnull align 8 dereferenceable(57108) %0)
  %13 = load i64, ptr %6, align 8
  %14 = load ptr, ptr %0, align 8
  %15 = getelementptr inbounds i8, ptr %14, i64 40
  %16 = load ptr, ptr %15, align 8
  tail call void %16(ptr noundef nonnull align 8 dereferenceable(57108) %0, i64 noundef %13, i32 noundef 0)
  %17 = tail call noundef i64 @_ZN7Archive10ReadHeaderEv(ptr noundef nonnull align 8 dereferenceable(57108) %0)
  %.not5 = icmp eq i64 %17, 0
  br i1 %.not5, label %29, label %18

18:                                               ; preds = %8
  %19 = getelementptr inbounds i8, ptr %0, i64 48864
  %20 = load i8, ptr %19, align 8
  %21 = trunc i8 %20 to i1
  %22 = getelementptr inbounds i8, ptr %0, i64 11076
  %23 = load i32, ptr %22, align 4
  %24 = icmp ne i32 %23, 3
  %or.cond.not = select i1 %21, i1 true, i1 %24
  br i1 %or.cond.not, label %29, label %25

25:                                               ; preds = %18
  %26 = getelementptr inbounds i8, ptr %0, i64 31264
  %27 = tail call i32 @wcscmp(ptr noundef nonnull %26, ptr noundef nonnull @.str) #20
  %28 = icmp eq i32 %27, 0
  br i1 %28, label %_ZN7Archive14SearchSubBlockEPKw.exit, label %29

29:                                               ; preds = %25, %18, %8
  %30 = load ptr, ptr %0, align 8
  %31 = getelementptr inbounds i8, ptr %30, i64 40
  %32 = load ptr, ptr %31, align 8
  tail call void %32(ptr noundef nonnull align 8 dereferenceable(57108) %0, i64 noundef %12, i32 noundef 0)
  br label %33

33:                                               ; preds = %29, %5, %1
  %34 = getelementptr inbounds i8, ptr %0, i64 11076
  %35 = getelementptr inbounds i8, ptr %0, i64 31264
  %36 = tail call noundef i64 @_ZN7Archive10ReadHeaderEv(ptr noundef nonnull align 8 dereferenceable(57108) %0)
  %.not7.i = icmp eq i64 %36, 0
  %37 = load i32, ptr %34, align 4
  %.not6.i10 = icmp eq i32 %37, 5
  %or.cond = select i1 %.not7.i, i1 true, i1 %.not6.i10
  br i1 %or.cond, label %_ZN7Archive14SearchSubBlockEPKw.exit, label %.lr.ph

.lr.ph:                                           ; preds = %33, %50
  %38 = phi i32 [ %52, %50 ], [ %37, %33 ]
  %.08.i11 = phi i64 [ %40, %50 ], [ 0, %33 ]
  %39 = phi i64 [ %51, %50 ], [ %36, %33 ]
  %40 = add i64 %.08.i11, 1
  %41 = and i64 %40, 127
  %42 = icmp eq i64 %41, 0
  br i1 %42, label %43, label %44

43:                                               ; preds = %.lr.ph
  tail call void @_Z4Waitv()
  %.pre.i = load i32, ptr %34, align 4
  br label %44

44:                                               ; preds = %43, %.lr.ph
  %45 = phi i32 [ %.pre.i, %43 ], [ %38, %.lr.ph ]
  %46 = icmp eq i32 %45, 3
  br i1 %46, label %47, label %50

47:                                               ; preds = %44
  %48 = tail call i32 @wcscmp(ptr noundef nonnull %35, ptr noundef nonnull @.str) #20
  %49 = icmp eq i32 %48, 0
  br i1 %49, label %_ZN7Archive14SearchSubBlockEPKw.exit, label %50

50:                                               ; preds = %47, %44
  tail call void @_ZN7Archive10SeekToNextEv(ptr noundef nonnull align 8 dereferenceable(57108) %0)
  %51 = tail call noundef i64 @_ZN7Archive10ReadHeaderEv(ptr noundef nonnull align 8 dereferenceable(57108) %0)
  %.not.i = icmp eq i64 %51, 0
  %52 = load i32, ptr %34, align 4
  %.not6.i = icmp eq i32 %52, 5
  %or.cond15 = select i1 %.not.i, i1 true, i1 %.not6.i
  br i1 %or.cond15, label %_ZN7Archive14SearchSubBlockEPKw.exit, label %.lr.ph, !llvm.loop !11

_ZN7Archive14SearchSubBlockEPKw.exit:             ; preds = %47, %50, %33, %25
  %.0 = phi i64 [ %17, %25 ], [ 0, %33 ], [ %39, %47 ], [ 0, %50 ]
  ret i64 %.0
}